target datalayout = "e-m:e-p270:32:32-p271:32:32-p272:64:64-i64:64-i128:128-f80:128-n8:16:32:64-S128"
target triple = "x86_64-pc-linux-gnu"

; Function Attrs: mustprogress uwtable
define noundef i32 @_ZN4base25PersistentMemoryAllocator8Iterator13GetNextOfTypeEj(ptr noundef nonnull align 8 dereferenceable(16) %0, i32 noundef %1) #1 align 2 {
  %3 = alloca i32, align 4
  %4 = alloca ptr, align 8
  %5 = alloca i32, align 4
  %6 = alloca i32, align 4
  %7 = alloca i32, align 4
  %8 = alloca i32, align 4
  store ptr %0, ptr %4, align 8, !tbaa !3
  store i32 %1, ptr %5, align 4, !tbaa !17
  %9 = load ptr, ptr %4, align 8
  call void @llvm.lifetime.start.p0(i64 4, ptr %6) #12
  call void @llvm.lifetime.start.p0(i64 4, ptr %7) #12
  br label %10

10:                                               ; preds = %19, %2
  %11 = call noundef i32 @_ZN4base25PersistentMemoryAllocator8Iterator7GetNextEPj(ptr noundef nonnull align 8 dereferenceable(16) %9, ptr noundef %7)
  store i32 %11, ptr %6, align 4, !tbaa !17
  %12 = icmp ne i32 %11, 0
  br i1 %12, label %13, label %20

13:                                               ; preds = %10
  %14 = load i32, ptr %7, align 4, !tbaa !17
  %15 = load i32, ptr %5, align 4, !tbaa !17
  %16 = icmp eq i32 %14, %15
  br i1 %16, label %17, label %19

17:                                               ; preds = %13
  %18 = load i32, ptr %6, align 4, !tbaa !17
  store i32 %18, ptr %3, align 4
  store i32 1, ptr %8, align 4
  br label %21

19:                                               ; preds = %13
  br label %10, !llvm.loop !43

20:                                               ; preds = %10
  store i32 0, ptr %3, align 4
  store i32 1, ptr %8, align 4
  br label %21

21:                                               ; preds = %20, %17
  call void @llvm.lifetime.end.p0(i64 4, ptr %7) #12
  call void @llvm.lifetime.end.p0(i64 4, ptr %6) #12
  %22 = load i32, ptr %3, align 4
  ret i32 %22
}