; Function Attrs: mustprogress uwtable
define noundef range(i32 56, 1) i32 @_ZN4base25PersistentMemoryAllocator8Iterator13GetNextOfTypeEj(ptr noundef nonnull align 8 captures(none) dereferenceable(16) %0, i32 noundef %1) local_unnamed_addr #3 align 2 {
  %3 = alloca i32, align 4
  call void @llvm.lifetime.start.p0(i64 4, ptr nonnull %3) #18
  br label %4

4:                                                ; preds = %4, %2
  %5 = call noundef i32 @_ZN4base25PersistentMemoryAllocator8Iterator7GetNextEPj(ptr noundef nonnull align 8 dereferenceable(16) %0, ptr noundef nonnull %3)
  %.not = icmp eq i32 %5, 0
  %6 = load i32, ptr %3, align 4
  %7 = icmp eq i32 %6, %1
  %or.cond = select i1 %.not, i1 true, i1 %7
  br i1 %or.cond, label %8, label %4, !llvm.loop !28

8:                                                ; preds = %4
  call void @llvm.lifetime.end.p0(i64 4, ptr nonnull %3) #18
  ret i32 %5
}